target datalayout = "e-m:e-p270:32:32-p271:32:32-p272:64:64-i64:64-i128:128-f80:128-n8:16:32:64-S128"
target triple = "x86_64-pc-linux-gnu"

%struct.strscanner = type { i64, i64, i64, i64, %struct.re_registers, i64, i8 }
%struct.re_registers = type { i32, i32, ptr, ptr }
%struct.RString = type { %struct.RBasic, i64, %union.anon }
%struct.RBasic = type { i64, i64 }
%union.anon = type { %struct.anon.0 }
%struct.anon.0 = type { ptr, %union.anon.1 }
%union.anon.1 = type { i64 }
%struct.anon.2 = type { [1 x i8] }

; Function Attrs: inlinehint nounwind sspstrong willreturn memory(read) uwtable
define internal i64 @RB_FL_TEST_RAW(i64 noundef %0, i64 noundef %1) #11 {
  %3 = alloca i64, align 8
  %4 = alloca i64, align 8
  store i64 %0, ptr %3, align 8, !tbaa !6
  store i64 %1, ptr %4, align 8, !tbaa !6
  %5 = load i64, ptr %3, align 8, !tbaa !6
  %6 = inttoptr i64 %5 to ptr
  %7 = getelementptr inbounds nuw %struct.RBasic, ptr %6, i32 0, i32 0
  %8 = load i64, ptr %7, align 8, !tbaa !61
  %9 = load i64, ptr %4, align 8, !tbaa !6
  %10 = and i64 %8, %9
  ret i64 %10
}

; Function Attrs: inlinehint nounwind sspstrong willreturn memory(read) uwtable
define internal zeroext i1 @RB_FL_ANY_RAW(i64 noundef %0, i64 noundef %1) #11 {
  %3 = alloca i64, align 8
  %4 = alloca i64, align 8
  store i64 %0, ptr %3, align 8, !tbaa !6
  store i64 %1, ptr %4, align 8, !tbaa !6
  %5 = load i64, ptr %3, align 8, !tbaa !6
  %6 = load i64, ptr %4, align 8, !tbaa !6
  %7 = call i64 @RB_FL_TEST_RAW(i64 noundef %5, i64 noundef %6) #28
  %8 = icmp ne i64 %7, 0
  ret i1 %8
}

; Function Attrs: inlinehint nounwind sspstrong willreturn memory(read, argmem: readwrite) uwtable
define internal void @rbimpl_rstring_getmem(ptr dead_on_unwind noalias writable sret(%struct.RString) align 8 %0, i64 noundef %1) #13 {
  %3 = alloca i64, align 8
  store i64 %1, ptr %3, align 8, !tbaa !6
  %4 = load i64, ptr %3, align 8, !tbaa !6
  %5 = call zeroext i1 @RB_FL_ANY_RAW(i64 noundef %4, i64 noundef 8192) #28
  br i1 %5, label %6, label %9

6:                                                ; preds = %2
  %7 = load i64, ptr %3, align 8, !tbaa !6
  %8 = inttoptr i64 %7 to ptr
  call void @llvm.memcpy.p0.p0.i64(ptr align 8 %0, ptr align 8 %8, i64 40, i1 false), !tbaa.struct !62
  br label %20

9:                                                ; preds = %2
  %10 = load i64, ptr %3, align 8, !tbaa !6
  %11 = call i64 @RSTRING_LEN(i64 noundef %10) #28
  %12 = getelementptr inbounds nuw %struct.RString, ptr %0, i32 0, i32 1
  store i64 %11, ptr %12, align 8, !tbaa !35
  %13 = load i64, ptr %3, align 8, !tbaa !6
  %14 = inttoptr i64 %13 to ptr
  %15 = getelementptr inbounds nuw %struct.RString, ptr %14, i32 0, i32 2
  %16 = getelementptr inbounds nuw %struct.anon.2, ptr %15, i32 0, i32 0
  %17 = getelementptr inbounds [1 x i8], ptr %16, i64 0, i64 0
  %18 = getelementptr inbounds nuw %struct.RString, ptr %0, i32 0, i32 2
  %19 = getelementptr inbounds nuw %struct.anon.0, ptr %18, i32 0, i32 0
  store ptr %17, ptr %19, align 8, !tbaa !31
  br label %20

20:                                               ; preds = %9, %6
  ret void
}

; Function Attrs: inlinehint nounwind sspstrong willreturn memory(read) uwtable
define internal i64 @RSTRING_LEN(i64 noundef %0) #11 {
  %2 = alloca i64, align 8
  store i64 %0, ptr %2, align 8, !tbaa !6
  %3 = load i64, ptr %2, align 8, !tbaa !6
  %4 = inttoptr i64 %3 to ptr
  %5 = getelementptr inbounds nuw %struct.RString, ptr %4, i32 0, i32 1
  %6 = load i64, ptr %5, align 8, !tbaa !35
  ret i64 %6
}

; Function Attrs: inlinehint nounwind sspstrong uwtable
define internal ptr @RSTRING_PTR(i64 noundef %0) #4 {
  %2 = alloca i64, align 8
  %3 = alloca ptr, align 8
  %4 = alloca %struct.RString, align 8
  store i64 %0, ptr %2, align 8, !tbaa !6
  call void @llvm.lifetime.start.p0(i64 8, ptr %3) #23
  %5 = load i64, ptr %2, align 8, !tbaa !6
  call void @rbimpl_rstring_getmem(ptr dead_on_unwind writable sret(%struct.RString) align 8 %4, i64 noundef %5) #29
  %6 = getelementptr inbounds nuw %struct.RString, ptr %4, i32 0, i32 2
  %7 = getelementptr inbounds nuw %struct.anon.0, ptr %6, i32 0, i32 0
  %8 = load ptr, ptr %7, align 8, !tbaa !31
  store ptr %8, ptr %3, align 8, !tbaa !12
  %9 = load ptr, ptr %3, align 8, !tbaa !12
  call void @llvm.lifetime.end.p0(i64 8, ptr %3) #23
  ret ptr %9
}

; Function Attrs: inlinehint nounwind sspstrong uwtable
define internal ptr @match_target(ptr noundef %0) #4 {
  %2 = alloca ptr, align 8
  %3 = alloca ptr, align 8
  store ptr %0, ptr %3, align 8, !tbaa !15
  %4 = load ptr, ptr %3, align 8, !tbaa !15
  %5 = getelementptr inbounds nuw %struct.strscanner, ptr %4, i32 0, i32 6
  %6 = load i8, ptr %5, align 8, !tbaa !25, !range !41, !noundef !42
  %7 = trunc i8 %6 to i1
  br i1 %7, label %8, label %13

8:                                                ; preds = %1
  %9 = load ptr, ptr %3, align 8, !tbaa !15
  %10 = getelementptr inbounds nuw %struct.strscanner, ptr %9, i32 0, i32 1
  %11 = load i64, ptr %10, align 8, !tbaa !22
  %12 = call ptr @RSTRING_PTR(i64 noundef %11)
  store ptr %12, ptr %2, align 8
  br label %22

13:                                               ; preds = %1
  %14 = load ptr, ptr %3, align 8, !tbaa !15
  %15 = getelementptr inbounds nuw %struct.strscanner, ptr %14, i32 0, i32 1
  %16 = load i64, ptr %15, align 8, !tbaa !22
  %17 = call ptr @RSTRING_PTR(i64 noundef %16)
  %18 = load ptr, ptr %3, align 8, !tbaa !15
  %19 = getelementptr inbounds nuw %struct.strscanner, ptr %18, i32 0, i32 3
  %20 = load i64, ptr %19, align 8, !tbaa !27
  %21 = getelementptr inbounds i8, ptr %17, i64 %20
  store ptr %21, ptr %2, align 8
  br label %22

22:                                               ; preds = %13, %8
  %23 = load ptr, ptr %2, align 8
  ret ptr %23
}

; Function Attrs: nounwind sspstrong uwtable
define internal i64 @strscan_search(ptr noundef %0, i64 noundef %1, ptr noundef %2, ptr noundef %3) #0 {
  %5 = alloca ptr, align 8
  %6 = alloca i64, align 8
  %7 = alloca ptr, align 8
  %8 = alloca ptr, align 8
  %9 = alloca ptr, align 8
  store ptr %0, ptr %5, align 8, !tbaa !65
  store i64 %1, ptr %6, align 8, !tbaa !6
  store ptr %2, ptr %7, align 8, !tbaa !66
  store ptr %3, ptr %8, align 8, !tbaa !52
  call void @llvm.lifetime.start.p0(i64 8, ptr %9) #23
  %10 = load ptr, ptr %8, align 8, !tbaa !52
  store ptr %10, ptr %9, align 8, !tbaa !15
  %11 = load ptr, ptr %5, align 8, !tbaa !65
  %12 = load ptr, ptr %9, align 8, !tbaa !15
  %13 = call ptr @match_target(ptr noundef %12)
  %14 = load ptr, ptr %9, align 8, !tbaa !15
  %15 = getelementptr inbounds nuw %struct.strscanner, ptr %14, i32 0, i32 1
  %16 = load i64, ptr %15, align 8, !tbaa !22
  %17 = call ptr @RSTRING_PTR(i64 noundef %16)
  %18 = load ptr, ptr %9, align 8, !tbaa !15
  %19 = getelementptr inbounds nuw %struct.strscanner, ptr %18, i32 0, i32 3
  %20 = load i64, ptr %19, align 8, !tbaa !27
  %21 = getelementptr inbounds i8, ptr %17, i64 %20
  %22 = load ptr, ptr %9, align 8, !tbaa !15
  %23 = getelementptr inbounds nuw %struct.strscanner, ptr %22, i32 0, i32 1
  %24 = load i64, ptr %23, align 8, !tbaa !22
  %25 = call i64 @RSTRING_LEN(i64 noundef %24) #28
  %26 = load ptr, ptr %9, align 8, !tbaa !15
  %27 = getelementptr inbounds nuw %struct.strscanner, ptr %26, i32 0, i32 3
  %28 = load i64, ptr %27, align 8, !tbaa !27
  %29 = sub nsw i64 %25, %28
  %30 = getelementptr inbounds i8, ptr %21, i64 %29
  %31 = load ptr, ptr %9, align 8, !tbaa !15
  %32 = getelementptr inbounds nuw %struct.strscanner, ptr %31, i32 0, i32 1
  %33 = load i64, ptr %32, align 8, !tbaa !22
  %34 = call ptr @RSTRING_PTR(i64 noundef %33)
  %35 = load ptr, ptr %9, align 8, !tbaa !15
  %36 = getelementptr inbounds nuw %struct.strscanner, ptr %35, i32 0, i32 3
  %37 = load i64, ptr %36, align 8, !tbaa !27
  %38 = getelementptr inbounds i8, ptr %34, i64 %37
  %39 = load ptr, ptr %9, align 8, !tbaa !15
  %40 = getelementptr inbounds nuw %struct.strscanner, ptr %39, i32 0, i32 1
  %41 = load i64, ptr %40, align 8, !tbaa !22
  %42 = call ptr @RSTRING_PTR(i64 noundef %41)
  %43 = load ptr, ptr %9, align 8, !tbaa !15
  %44 = getelementptr inbounds nuw %struct.strscanner, ptr %43, i32 0, i32 3
  %45 = load i64, ptr %44, align 8, !tbaa !27
  %46 = getelementptr inbounds i8, ptr %42, i64 %45
  %47 = load ptr, ptr %9, align 8, !tbaa !15
  %48 = getelementptr inbounds nuw %struct.strscanner, ptr %47, i32 0, i32 1
  %49 = load i64, ptr %48, align 8, !tbaa !22
  %50 = call i64 @RSTRING_LEN(i64 noundef %49) #28
  %51 = load ptr, ptr %9, align 8, !tbaa !15
  %52 = getelementptr inbounds nuw %struct.strscanner, ptr %51, i32 0, i32 3
  %53 = load i64, ptr %52, align 8, !tbaa !27
  %54 = sub nsw i64 %50, %53
  %55 = getelementptr inbounds i8, ptr %46, i64 %54
  %56 = load ptr, ptr %7, align 8, !tbaa !66
  %57 = call i64 @onig_search(ptr noundef %11, ptr noundef %13, ptr noundef %30, ptr noundef %38, ptr noundef %55, ptr noundef %56, i32 noundef 0)
  call void @llvm.lifetime.end.p0(i64 8, ptr %9) #23
  ret i64 %57
}