; Function Attrs: nounwind sspstrong uwtable
define internal i64 @strscan_search(ptr noundef %0, i64 %1, ptr noundef %2, ptr noundef readonly captures(none) %3) #0 {
  %5 = getelementptr inbounds nuw i8, ptr %3, i64 64
  %6 = load i8, ptr %5, align 8, !tbaa !27, !range !41, !noundef !42
  %7 = trunc nuw i8 %6 to i1
  %8 = getelementptr inbounds nuw i8, ptr %3, i64 8
  %9 = load i64, ptr %8, align 8, !tbaa !23
  %10 = inttoptr i64 %9 to ptr
  %11 = load i64, ptr %10, align 8, !tbaa !34, !noalias !42
  %12 = and i64 %11, 8192
  %.not.i.i.i = icmp eq i64 %12, 0
  %13 = getelementptr inbounds nuw i8, ptr %10, i64 24
  br i1 %7, label %14, label %15

14:                                               ; preds = %4
  br i1 %.not.i.i.i, label %.RSTRING_PTR.exit17.thread_crit_edge, label %match_target.exit.thread24

.RSTRING_PTR.exit17.thread_crit_edge:             ; preds = %14
  %.phi.trans.insert36 = getelementptr inbounds nuw i8, ptr %3, i64 24
  %.pre37 = load i64, ptr %.phi.trans.insert36, align 8, !tbaa !29
  br label %RSTRING_PTR.exit17.thread

match_target.exit.thread24:                       ; preds = %14
  %.sroa.2.0.copyload.i.i = load ptr, ptr %13, align 8
  %.phi.trans.insert = getelementptr inbounds nuw i8, ptr %3, i64 24
  %.pre = load i64, ptr %.phi.trans.insert, align 8, !tbaa !29
  br label %27

15:                                               ; preds = %4
  br i1 %.not.i.i.i, label %match_target.exit.thread27, label %match_target.exit

match_target.exit.thread27:                       ; preds = %15
  %16 = getelementptr inbounds nuw i8, ptr %3, i64 24
  %17 = load i64, ptr %16, align 8, !tbaa !29
  %18 = getelementptr inbounds i8, ptr %13, i64 %17
  br label %RSTRING_PTR.exit17.thread

match_target.exit:                                ; preds = %15
  %.sroa.2.0.copyload.i6.i = load ptr, ptr %13, align 8
  %19 = getelementptr inbounds nuw i8, ptr %3, i64 24
  %20 = load i64, ptr %19, align 8, !tbaa !29
  %21 = getelementptr inbounds i8, ptr %.sroa.2.0.copyload.i6.i, i64 %20
  br label %27

RSTRING_PTR.exit17.thread:                        ; preds = %.RSTRING_PTR.exit17.thread_crit_edge, %match_target.exit.thread27
  %22 = phi i64 [ %17, %match_target.exit.thread27 ], [ %.pre37, %.RSTRING_PTR.exit17.thread_crit_edge ]
  %.0.i23.ph = phi ptr [ %18, %match_target.exit.thread27 ], [ %13, %.RSTRING_PTR.exit17.thread_crit_edge ]
  %23 = getelementptr inbounds nuw i8, ptr %10, i64 16
  %24 = load i64, ptr %23, align 8, !tbaa !32
  %25 = getelementptr inbounds i8, ptr %13, i64 %24
  %26 = getelementptr inbounds i8, ptr %13, i64 %22
  br label %RSTRING_PTR.exit21

27:                                               ; preds = %match_target.exit, %match_target.exit.thread24
  %28 = phi i64 [ %.pre, %match_target.exit.thread24 ], [ %20, %match_target.exit ]
  %.sroa.2.0.copyload.i19 = phi ptr [ %.sroa.2.0.copyload.i.i, %match_target.exit.thread24 ], [ %.sroa.2.0.copyload.i6.i, %match_target.exit ]
  %.0.i26 = phi ptr [ %.sroa.2.0.copyload.i.i, %match_target.exit.thread24 ], [ %21, %match_target.exit ]
  %29 = getelementptr inbounds nuw i8, ptr %10, i64 16
  %30 = load i64, ptr %29, align 8, !tbaa !32
  %31 = getelementptr inbounds i8, ptr %.sroa.2.0.copyload.i19, i64 %30
  %32 = getelementptr inbounds i8, ptr %.sroa.2.0.copyload.i19, i64 %28
  br label %RSTRING_PTR.exit21

RSTRING_PTR.exit21:                               ; preds = %RSTRING_PTR.exit17.thread, %27
  %33 = phi ptr [ %32, %27 ], [ %26, %RSTRING_PTR.exit17.thread ]
  %.0.i233134 = phi ptr [ %.0.i26, %27 ], [ %.0.i23.ph, %RSTRING_PTR.exit17.thread ]
  %34 = phi i64 [ %30, %27 ], [ %24, %RSTRING_PTR.exit17.thread ]
  %35 = phi ptr [ %31, %27 ], [ %25, %RSTRING_PTR.exit17.thread ]
  %.sroa.2.0.i20 = phi ptr [ %.sroa.2.0.copyload.i19, %27 ], [ %13, %RSTRING_PTR.exit17.thread ]
  %36 = getelementptr inbounds i8, ptr %.sroa.2.0.i20, i64 %34
  %37 = tail call i64 @onig_search(ptr noundef %0, ptr noundef %.0.i233134, ptr noundef %35, ptr noundef %33, ptr noundef %36, ptr noundef %2, i32 noundef 0) #12
  ret i64 %37
}